; Function Attrs: nounwind uwtable
define internal noundef i32 @MatrixEmbeddedLSFree(ptr noundef %0) #0 {
  %2 = icmp eq ptr %0, null
  br i1 %2, label %4, label %3

3:                                                ; preds = %1
  store ptr null, ptr %0, align 8, !tbaa !21
  tail call void @SUNLinSolFreeEmpty(ptr noundef nonnull %0) #10
  br label %4

4:                                                ; preds = %1, %3
  ret i32 0
}